; Function Attrs: nounwind uwtable
define ptr @_ZnamSt11align_val_tRKSt9nothrow_t(i64 noundef %0, i64 noundef %1, ptr noundef readnone captures(none) %2) local_unnamed_addr #3 {
  %4 = tail call noalias ptr @mi_malloc_aligned(i64 noundef %0, i64 noundef %1) #19
  %5 = icmp eq ptr %4, null
  br i1 %5, label %.lr.ph.i, label %mi_new_aligned_nothrow.exit

.lr.ph.i:                                         ; preds = %3, %mi_try_new_handler.exit.i
  %6 = tail call ptr @_ZSt15get_new_handlerv() #20
  %.not.i = icmp eq ptr %6, null
  br i1 %.not.i, label %mi_try_new_handler.exit.thread.i, label %mi_try_new_handler.exit.i

mi_try_new_handler.exit.thread.i:                 ; preds = %.lr.ph.i
  tail call void (i32, ptr, ...) @_mi_error_message(i32 noundef 12, ptr noundef nonnull @.str.4) #19
  br label %mi_new_aligned_nothrow.exit

mi_try_new_handler.exit.i:                        ; preds = %.lr.ph.i
  tail call void %6() #19
  %7 = tail call noalias ptr @mi_malloc_aligned(i64 noundef %0, i64 noundef %1) #19
  %8 = icmp eq ptr %7, null
  br i1 %8, label %.lr.ph.i, label %mi_new_aligned_nothrow.exit, !llvm.loop !29

mi_new_aligned_nothrow.exit:                      ; preds = %mi_try_new_handler.exit.i, %3, %mi_try_new_handler.exit.thread.i
  %9 = phi ptr [ null, %mi_try_new_handler.exit.thread.i ], [ %4, %3 ], [ %7, %mi_try_new_handler.exit.i ]
  ret ptr %9
}